Certificate:
    Data:
        Version: 3 (0x2)
        Serial Number: 2 (0x2)
    Signature Algorithm: sha1WithRSAEncryption
        Issuer: DC=hem, DC=flora1, O=Automate, OU=Automate Root CA, CN=Automate Root CA
        Validity
            Not Before: Apr 18 20:00:30 2018 GMT
            Not After : Apr 17 20:00:30 2028 GMT
        Subject: DC=hem, DC=flora1, O=Automate, OU=Automate Signing CA, CN=Automate Signing CA
        Subject Public Key Info:
            Public Key Algorithm: rsaEncryption
                Public-Key: (2048 bit)
                Modulus:
                    00:c9:2d:2c:c6:af:27:fb:bc:ed:80:39:86:c7:97:
                    ee:53:0e:69:1e:22:7d:2b:c6:df:87:b5:be:71:82:
                    61:6b:f1:ac:74:4f:16:f5:4f:79:3d:ae:04:84:59:
                    46:73:95:4d:ff:1c:2b:f9:d8:b1:19:7d:bf:b2:60:
                    0d:4f:92:54:42:85:43:c5:2b:cd:60:4a:8d:ef:03:
                    a6:01:44:27:9f:ba:0d:63:70:6d:ae:42:6f:c2:c7:
                    7b:6e:4d:52:e5:76:c4:cc:f5:55:9c:08:f8:dc:54:
                    13:fd:a3:89:99:c4:be:1e:7e:25:c8:a7:dc:d2:f7:
                    b1:29:f6:62:5e:bb:01:8d:c4:93:fb:65:65:fb:6c:
                    69:4d:8c:29:80:0b:54:a7:19:09:51:17:e6:05:19:
                    de:b4:bb:45:ee:c3:ea:af:da:c0:a3:9a:38:81:aa:
                    e3:f4:6d:67:0b:9a:e2:9d:51:25:5d:79:10:b3:65:
                    2b:08:17:62:4e:3a:2e:7a:e5:c2:bd:bd:06:37:50:
                    09:66:f3:5f:d0:71:63:e3:f6:e9:8b:6a:a8:2b:8c:
                    9c:6d:82:90:4a:f8:16:21:8e:4c:6d:45:65:d3:d1:
                    5d:39:2e:83:16:54:bb:89:69:84:22:e6:cf:4a:ab:
                    49:ba:1c:bd:d3:b2:f6:4c:11:09:f4:8f:51:34:15:
                    87:df
                Exponent: 65537 (0x10001)
        X509v3 extensions:
            X509v3 Key Usage: critical
                Certificate Sign, CRL Sign
            X509v3 Basic Constraints: critical
                CA:TRUE, pathlen:0
            X509v3 Subject Key Identifier: 
                19:44:E0:CB:9A:9D:3E:E3:18:80:7D:19:D2:BC:C5:CD:6D:DD:45:78
            X509v3 Authority Key Identifier: 
                keyid:D8:B4:57:94:2D:25:4F:0F:87:3A:59:B8:55:7F:1E:70:B4:D6:C1:BF

    Signature Algorithm: sha1WithRSAEncryption
         c6:4d:0b:1f:db:95:0e:f7:0f:b5:5b:be:56:3a:e0:19:95:b7:
         cf:3b:6f:09:eb:26:c3:39:2d:76:92:38:db:e7:30:92:bb:6c:
         7f:04:74:95:06:19:ed:44:36:15:e6:7a:43:0d:da:77:57:ca:
         24:a7:c5:e6:2b:d4:e5:a4:1e:2f:3d:14:b5:b3:23:71:e2:20:
         35:b0:cb:a5:c3:02:06:c6:b9:e8:bb:bb:65:eb:f4:8c:d4:de:
         b6:c9:7b:b6:a6:6c:74:63:a1:65:ab:fc:b1:dd:46:31:14:42:
         13:c3:fd:c1:cd:4b:36:7d:74:52:b5:81:23:30:4f:e6:79:61:
         64:8b:19:c2:fb:81:59:41:c7:25:e3:ea:ba:2b:0f:64:9b:a1:
         03:4c:23:dc:b5:50:37:ff:2c:65:2c:3c:18:03:38:46:3a:00:
         4d:e6:f0:93:99:56:2f:fa:aa:f5:db:24:c5:f2:84:ab:84:8e:
         cc:7d:6c:05:4f:70:36:85:13:8b:15:4e:02:dd:d6:ca:e1:45:
         d2:7c:0d:77:61:1d:47:23:95:e9:6c:52:65:92:4d:2f:32:e7:
         45:9b:44:82:95:98:fa:1c:fe:80:ed:2b:d4:ad:67:82:ce:f4:
         5b:c7:22:3f:06:46:e7:80:4e:de:ea:51:68:77:30:92:19:8d:
         2d:37:9e:d8
-----BEGIN CERTIFICATE-----
MIID0zCCArugAwIBAgIBAjANBgkqhkiG9w0BAQUFADB2MRMwEQYKCZImiZPyLGQB
GRYDaGVtMRYwFAYKCZImiZPyLGQBGRYGZmxvcmExMREwDwYDVQQKDAhBdXRvbWF0
ZTEZMBcGA1UECwwQQXV0b21hdGUgUm9vdCBDQTEZMBcGA1UEAwwQQXV0b21hdGUg
Um9vdCBDQTAeFw0xODA0MTgyMDAwMzBaFw0yODA0MTcyMDAwMzBaMHwxEzARBgoJ
kiaJk/IsZAEZFgNoZW0xFjAUBgoJkiaJk/IsZAEZFgZmbG9yYTExETAPBgNVBAoM
CEF1dG9tYXRlMRwwGgYDVQQLDBNBdXRvbWF0ZSBTaWduaW5nIENBMRwwGgYDVQQD
DBNBdXRvbWF0ZSBTaWduaW5nIENBMIIBIjANBgkqhkiG9w0BAQEFAAOCAQ8AMIIB
CgKCAQEAyS0sxq8n+7ztgDmGx5fuUw5pHiJ9K8bfh7W+cYJha/GsdE8W9U95Pa4E
hFlGc5VN/xwr+dixGX2/smANT5JUQoVDxSvNYEqN7wOmAUQnn7oNY3BtrkJvwsd7
bk1S5XbEzPVVnAj43FQT/aOJmcS+Hn4lyKfc0vexKfZiXrsBjcST+2Vl+2xpTYwp
gAtUpxkJURfmBRnetLtF7sPqr9rAo5o4garj9G1nC5rinVElXXkQs2UrCBdiTjou
euXCvb0GN1AJZvNf0HFj4/bpi2qoK4ycbYKQSvgWIY5MbUVl09FdOS6DFlS7iWmE
IubPSqtJuhy907L2TBEJ9I9RNBWH3wIDAQABo2YwZDAOBgNVHQ8BAf8EBAMCAQYw
EgYDVR0TAQH/BAgwBgEB/wIBADAdBgNVHQ4EFgQUGUTgy5qdPuMYgH0Z0rzFzW3d
RXgwHwYDVR0jBBgwFoAU2LRXlC0lTw+HOlm4VX8ecLTWwb8wDQYJKoZIhvcNAQEF
BQADggEBAMZNCx/blQ73D7VbvlY64BmVt887bwnrJsM5LXaSONvnMJK7bH8EdJUG
Ge1ENhXmekMN2ndXyiSnxeYr1OWkHi89FLWzI3HiIDWwy6XDAgbGuei7u2Xr9IzU
3rbJe7ambHRjoWWr/LHdRjEUQhPD/cHNSzZ9dFK1gSMwT+Z5YWSLGcL7gVlBxyXj
6rorD2SboQNMI9y1UDf/LGUsPBgDOEY6AE3m8JOZVi/6qvXbJMXyhKuEjsx9bAVP
cDaFE4sVTgLd1srhRdJ8DXdhHUcjlelsUmWSTS8y50WbRIKVmPoc/oDtK9StZ4LO
9FvHIj8GRueATt7qUWh3MJIZjS03ntg=
-----END CERTIFICATE-----
Certificate:
    Data:
        Version: 3 (0x2)
        Serial Number: 1 (0x1)
    Signature Algorithm: sha1WithRSAEncryption
        Issuer: DC=hem, DC=flora1, O=Automate, OU=Automate Root CA, CN=Automate Root CA
        Validity
            Not Before: Apr 18 19:51:02 2018 GMT
            Not After : Apr 17 19:51:02 2028 GMT
        Subject: DC=hem, DC=flora1, O=Automate, OU=Automate Root CA, CN=Automate Root CA
        Subject Public Key Info:
            Public Key Algorithm: rsaEncryption
                Public-Key: (2048 bit)
                Modulus:
                    00:d1:b7:52:99:95:74:ef:6c:10:8d:b0:df:c6:41:
                    6a:e7:95:8a:81:ea:49:55:a3:be:89:2c:06:94:e7:
                    97:3d:95:27:54:d9:4c:b0:83:9e:6d:9a:58:56:91:
                    f2:07:68:56:ea:d1:b0:c9:b9:4a:61:44:51:84:80:
                    4f:ad:74:7f:02:a3:ca:33:46:b6:98:06:b0:83:ad:
                    87:ff:62:31:69:a1:d6:58:e4:0f:3c:44:8e:55:d9:
                    49:cf:3f:ab:7a:07:68:5e:4e:ad:1d:59:2c:74:d9:
                    65:79:85:39:c6:cb:25:28:10:c8:34:25:ee:2d:3b:
                    18:d7:53:10:26:10:2e:40:2e:c6:ef:76:14:45:48:
                    a3:15:e4:1e:eb:9f:f7:c2:cd:4f:21:31:be:d5:4d:
                    56:45:a8:d5:bc:b1:5b:fb:15:a7:9d:3c:8a:06:43:
                    12:eb:15:1a:88:ea:96:ee:86:03:f5:14:34:7f:72:
                    9d:4e:30:68:13:f7:3e:e7:bc:88:62:a5:fb:0e:b7:
                    12:e6:ea:a7:c7:a0:5b:20:4f:39:c3:d8:16:66:20:
                    60:c6:f1:03:1b:5c:26:6b:5e:07:45:c1:54:ba:5d:
                    c0:e4:c3:6c:67:15:18:ce:0a:7c:a9:a6:f0:b1:cc:
                    24:c5:f5:fa:6f:b1:11:c3:92:17:14:9a:8d:1a:d5:
                    03:a1
                Exponent: 65537 (0x10001)
        X509v3 extensions:
            X509v3 Key Usage: critical
                Certificate Sign, CRL Sign
            X509v3 Basic Constraints: critical
                CA:TRUE
            X509v3 Subject Key Identifier: 
                D8:B4:57:94:2D:25:4F:0F:87:3A:59:B8:55:7F:1E:70:B4:D6:C1:BF
            X509v3 Authority Key Identifier: 
                keyid:D8:B4:57:94:2D:25:4F:0F:87:3A:59:B8:55:7F:1E:70:B4:D6:C1:BF

    Signature Algorithm: sha1WithRSAEncryption
         31:ca:7e:63:0d:f7:0a:4f:f1:18:90:46:c0:7c:7f:22:67:07:
         7e:49:5c:e3:ca:96:10:54:e4:91:ac:8c:57:ac:67:b2:a5:41:
         6c:74:13:28:6f:ea:6b:c4:e7:14:d3:06:f3:76:df:b7:5b:89:
         45:34:b8:d2:93:b8:ae:24:c2:02:3f:db:4f:f4:ae:be:8d:56:
         bf:69:0f:8b:bd:65:f9:ef:4b:a2:b6:3d:8a:95:56:9a:c4:ae:
         e4:80:9a:48:27:17:c4:bb:61:7e:24:30:1d:85:74:1f:9d:31:
         b6:06:77:36:d7:67:70:bb:23:7c:bf:95:32:47:34:86:43:ad:
         39:2d:f3:c0:e7:47:08:2d:44:38:da:45:76:ee:e0:38:5a:96:
         c7:01:d7:aa:89:79:a9:1a:7f:02:13:3d:20:20:5f:bf:61:95:
         19:50:90:47:e1:c2:c8:8f:8f:c0:c1:0f:a1:b9:7e:5d:7d:60:
         47:5c:20:ca:bf:54:d0:75:ce:fa:27:c4:de:a0:0d:63:49:53:
         0a:b4:b6:15:9e:6c:4b:1e:30:4b:8c:85:95:02:77:14:66:b5:
         a1:b1:61:e4:9f:e8:27:ea:36:5a:13:01:45:26:6d:fc:ef:b3:
         69:f9:38:72:51:da:ac:f9:44:b6:08:eb:51:b5:df:f1:a5:9e:
         0e:6b:7e:8a
-----BEGIN CERTIFICATE-----
MIIDyjCCArKgAwIBAgIBATANBgkqhkiG9w0BAQUFADB2MRMwEQYKCZImiZPyLGQB
GRYDaGVtMRYwFAYKCZImiZPyLGQBGRYGZmxvcmExMREwDwYDVQQKDAhBdXRvbWF0
ZTEZMBcGA1UECwwQQXV0b21hdGUgUm9vdCBDQTEZMBcGA1UEAwwQQXV0b21hdGUg
Um9vdCBDQTAeFw0xODA0MTgxOTUxMDJaFw0yODA0MTcxOTUxMDJaMHYxEzARBgoJ
kiaJk/IsZAEZFgNoZW0xFjAUBgoJkiaJk/IsZAEZFgZmbG9yYTExETAPBgNVBAoM
CEF1dG9tYXRlMRkwFwYDVQQLDBBBdXRvbWF0ZSBSb290IENBMRkwFwYDVQQDDBBB
dXRvbWF0ZSBSb290IENBMIIBIjANBgkqhkiG9w0BAQEFAAOCAQ8AMIIBCgKCAQEA
0bdSmZV072wQjbDfxkFq55WKgepJVaO+iSwGlOeXPZUnVNlMsIOebZpYVpHyB2hW
6tGwyblKYURRhIBPrXR/AqPKM0a2mAawg62H/2IxaaHWWOQPPESOVdlJzz+regdo
Xk6tHVksdNlleYU5xsslKBDINCXuLTsY11MQJhAuQC7G73YURUijFeQe65/3ws1P
ITG+1U1WRajVvLFb+xWnnTyKBkMS6xUaiOqW7oYD9RQ0f3KdTjBoE/c+57yIYqX7
DrcS5uqnx6BbIE85w9gWZiBgxvEDG1wma14HRcFUul3A5MNsZxUYzgp8qabwscwk
xfX6b7ERw5IXFJqNGtUDoQIDAQABo2MwYTAOBgNVHQ8BAf8EBAMCAQYwDwYDVR0T
AQH/BAUwAwEB/zAdBgNVHQ4EFgQU2LRXlC0lTw+HOlm4VX8ecLTWwb8wHwYDVR0j
BBgwFoAU2LRXlC0lTw+HOlm4VX8ecLTWwb8wDQYJKoZIhvcNAQEFBQADggEBADHK
fmMN9wpP8RiQRsB8fyJnB35JXOPKlhBU5JGsjFesZ7KlQWx0Eyhv6mvE5xTTBvN2
37dbiUU0uNKTuK4kwgI/20/0rr6NVr9pD4u9ZfnvS6K2PYqVVprEruSAmkgnF8S7
YX4kMB2FdB+dMbYGdzbXZ3C7I3y/lTJHNIZDrTkt88DnRwgtRDjaRXbu4DhalscB
16qJeakafwITPSAgX79hlRlQkEfhwsiPj8DBD6G5fl19YEdcIMq/VNB1zvonxN6g
DWNJUwq0thWebEseMEuMhZUCdxRmtaGxYeSf6CfqNloTAUUmbfzvs2n5OHJR2qz5
RLYI61G13/Glng5rfoo=
-----END CERTIFICATE-----
